Certificate:
    Data:
        Version: 3 (0x2)
        Serial Number: 12 (0xc)
    Signature Algorithm: sha256WithRSAEncryption
        Issuer: C=CN, ST=Shanghai, L=Shanghai, O=Mashiro LLC, CN=Mashiro Internet Fake Authority CA
        Validity
            Not Before: Jan 28 15:55:37 2019 GMT
            Not After : Jan 25 15:55:37 2029 GMT
        Subject: C=CN, ST=Shanghai, O=Mashiro LLC, CN=*.pixiv.net
        Subject Public Key Info:
            Public Key Algorithm: rsaEncryption
                Public-Key: (2048 bit)
                Modulus:
                    00:b6:69:b0:85:40:ad:74:2c:4a:68:5d:9c:9b:88:
                    15:77:95:1e:48:09:bf:49:0e:77:94:fc:66:bd:33:
                    05:28:f7:e8:dd:a9:70:59:d3:6a:a2:b3:66:6f:ac:
                    37:9f:e6:bd:4b:41:d4:18:1a:db:e6:c7:ca:74:a1:
                    d7:29:2b:11:5a:b8:59:70:6c:47:c8:77:ed:dc:5e:
                    94:cf:a6:95:8c:ab:42:5e:9f:fb:08:98:35:6c:96:
                    f3:a5:2e:ed:ae:93:e1:d7:48:03:27:43:49:89:19:
                    c0:51:3a:b2:10:65:4e:79:d9:fa:e6:c0:98:db:34:
                    6b:47:61:25:29:4e:23:40:db:0f:06:94:63:04:9c:
                    b3:af:bd:36:0f:41:38:2c:5e:51:c5:46:17:5c:88:
                    2c:95:8e:75:da:5e:81:55:88:df:ad:dd:32:b0:ca:
                    96:28:45:6b:c2:13:c6:35:d3:4d:41:e9:f4:f1:c4:
                    5d:3a:52:00:ef:b5:96:6b:2d:3f:30:a5:59:c7:51:
                    67:41:94:e3:39:f2:a8:ca:f4:ab:e7:3a:f9:f1:dc:
                    8f:bb:ae:95:d3:48:e5:48:82:46:94:83:90:44:5f:
                    4c:cd:61:c4:b7:27:a8:56:3a:22:b6:c2:05:76:b2:
                    a7:da:58:58:29:74:16:02:79:bf:16:2d:73:01:a8:
                    13:e3
                Exponent: 65537 (0x10001)
        X509v3 extensions:
            X509v3 Subject Key Identifier: 
                04:79:27:0B:A8:B9:39:9C:2E:F0:A6:88:4A:73:38:D8:BD:2F:4C:BD
            X509v3 Authority Key Identifier: 
                keyid:3F:6C:37:71:8F:74:1B:28:5A:0F:C2:29:C1:2B:05:7E:D1:24:D4:54

            X509v3 Basic Constraints: 
                CA:FALSE
            X509v3 Key Usage: 
                Digital Signature, Key Encipherment
            X509v3 Subject Alternative Name: 
                DNS:*.pixiv.net, DNS:pixiv.net, DNS:public-api.secure.pixiv.net, DNS:*.secure.pixiv.net, DNS:www.pixivision.net, DNS:pixiv.me, DNS:pximg.net, DNS:*.pximg.net, DNS:wikipedia.org, DNS:*.wikipedia.org, DNS:google.com, DNS:*.google.com
    Signature Algorithm: sha256WithRSAEncryption
         32:d9:40:37:83:81:07:2e:ae:8b:bc:be:f6:11:b9:a4:e3:d3:
         28:c9:97:e6:b4:80:1b:69:57:bb:1b:e4:ce:e1:b4:d5:d1:91:
         1c:5d:57:7d:c5:19:15:67:91:c5:db:26:7a:96:fc:70:84:5c:
         cb:bf:20:78:f4:2e:a5:16:a5:40:0c:07:b5:c3:b3:f9:5e:1a:
         66:bb:8c:47:ec:bd:6a:cc:7c:a1:2a:d5:5b:e7:bb:91:1e:e5:
         d9:43:04:f6:f9:1b:13:a3:d9:ea:7a:4d:ff:ac:d5:b1:1a:f1:
         06:76:b7:9f:ca:25:aa:d3:b3:af:37:3a:1f:4d:f1:50:81:91:
         16:f5:88:5d:ab:6f:19:8c:94:59:64:2e:94:23:66:60:0d:56:
         ee:4c:0a:e2:d6:09:b1:42:21:d5:4e:e9:00:c9:1d:23:1a:d9:
         d8:1a:81:d1:ef:65:85:3b:61:63:4f:c5:d1:d3:b8:43:cb:14:
         6f:d6:42:6a:57:7a:ca:09:00:04:77:45:f1:05:da:39:bc:ea:
         14:f8:3f:73:43:c5:f1:88:7b:cf:6d:dd:14:3b:88:a0:89:56:
         d0:f5:37:9f:65:b7:56:50:e7:91:3a:ef:c9:05:3c:09:87:3c:
         41:fa:f3:bf:64:00:a2:7f:be:5f:2a:e0:9f:0e:05:78:19:b0:
         f1:2a:3c:e4
-----BEGIN CERTIFICATE-----
MIIEYjCCA0qgAwIBAgIBDDANBgkqhkiG9w0BAQsFADB2MQswCQYDVQQGEwJDTjER
MA8GA1UECBMIU2hhbmdoYWkxETAPBgNVBAcTCFNoYW5naGFpMRQwEgYDVQQKEwtN
YXNoaXJvIExMQzErMCkGA1UEAxMiTWFzaGlybyBJbnRlcm5ldCBGYWtlIEF1dGhv
cml0eSBDQTAeFw0xOTAxMjgxNTU1MzdaFw0yOTAxMjUxNTU1MzdaMEwxCzAJBgNV
BAYTAkNOMREwDwYDVQQIEwhTaGFuZ2hhaTEUMBIGA1UEChMLTWFzaGlybyBMTEMx
FDASBgNVBAMUCyoucGl4aXYubmV0MIIBIjANBgkqhkiG9w0BAQEFAAOCAQ8AMIIB
CgKCAQEAtmmwhUCtdCxKaF2cm4gVd5UeSAm/SQ53lPxmvTMFKPfo3alwWdNqorNm
b6w3n+a9S0HUGBrb5sfKdKHXKSsRWrhZcGxHyHft3F6Uz6aVjKtCXp/7CJg1bJbz
pS7trpPh10gDJ0NJiRnAUTqyEGVOedn65sCY2zRrR2ElKU4jQNsPBpRjBJyzr702
D0E4LF5RxUYXXIgslY512l6BVYjfrd0ysMqWKEVrwhPGNdNNQen08cRdOlIA77WW
ay0/MKVZx1FnQZTjOfKoyvSr5zr58dyPu66V00jlSIJGlIOQRF9MzWHEtyeoVjoi
tsIFdrKn2lhYKXQWAnm/Fi1zAagT4wIDAQABo4IBIzCCAR8wHQYDVR0OBBYEFAR5
JwuouTmcLvCmiEpzONi9L0y9MB8GA1UdIwQYMBaAFD9sN3GPdBsoWg/CKcErBX7R
JNRUMAkGA1UdEwQCMAAwCwYDVR0PBAQDAgWgMIHEBgNVHREEgbwwgbmCCyoucGl4
aXYubmV0gglwaXhpdi5uZXSCG3B1YmxpYy1hcGkuc2VjdXJlLnBpeGl2Lm5ldIIS
Ki5zZWN1cmUucGl4aXYubmV0ghJ3d3cucGl4aXZpc2lvbi5uZXSCCHBpeGl2Lm1l
gglweGltZy5uZXSCCyoucHhpbWcubmV0gg13aWtpcGVkaWEub3Jngg8qLndpa2lw
ZWRpYS5vcmeCCmdvb2dsZS5jb22CDCouZ29vZ2xlLmNvbTANBgkqhkiG9w0BAQsF
AAOCAQEAMtlAN4OBBy6ui7y+9hG5pOPTKMmX5rSAG2lXuxvkzuG01dGRHF1XfcUZ
FWeRxdsmepb8cIRcy78gePQupRalQAwHtcOz+V4aZruMR+y9asx8oSrVW+e7kR7l
2UME9vkbE6PZ6npN/6zVsRrxBna3n8olqtOzrzc6H03xUIGRFvWIXatvGYyUWWQu
lCNmYA1W7kwK4tYJsUIh1U7pAMkdIxrZ2BqB0e9lhTthY0/F0dO4Q8sUb9ZCald6
ygkABHdF8QXaObzqFPg/c0PF8Yh7z23dFDuIoIlW0PU3n2W3VlDnkTrvyQU8CYc8
Qfrzv2QAon++Xyrgnw4FeBmw8So85A==
-----END CERTIFICATE-----
