Certificate:
    Data:
        Version: 3 (0x2)
        Serial Number: 14 (0xe)
    Signature Algorithm: sha256WithRSAEncryption
        Issuer: C=CN, ST=Shanghai, L=Shanghai, O=Mashiro LLC, CN=Mashiro Internet Fake Authority CA
        Validity
            Not Before: Jun 22 06:47:53 2019 GMT
            Not After : Jun 19 06:47:53 2029 GMT
        Subject: C=CN, ST=Shanghai, O=Mashiro LLC, CN=*.pixiv.net
        Subject Public Key Info:
            Public Key Algorithm: rsaEncryption
                Public-Key: (2048 bit)
                Modulus:
                    00:ce:00:18:cc:64:70:ac:59:b0:45:9e:c3:ee:9e:
                    9b:b2:56:59:43:aa:b7:98:6b:bb:86:86:c9:bb:b6:
                    ed:54:b8:56:de:ec:18:06:62:59:27:3b:d2:16:4a:
                    8a:86:ad:40:2b:69:6a:dc:21:12:4b:ca:fd:85:a8:
                    01:dd:ec:2a:20:a2:6e:b0:c2:a7:79:88:f9:f4:34:
                    95:fb:85:bf:f0:c7:1d:57:29:f8:a5:62:e3:b6:9e:
                    52:f7:42:2a:0c:5a:5c:6d:b4:30:51:4e:c1:40:57:
                    c6:58:57:18:47:9c:59:9d:b7:38:bb:cc:0c:68:aa:
                    6c:68:76:be:6f:84:83:12:ef:60:2d:11:61:d8:01:
                    f0:09:85:8c:80:fa:f0:f6:23:95:c7:97:c1:86:53:
                    97:b5:d5:dc:5b:a8:f8:22:49:0a:70:2d:92:77:17:
                    41:fd:0e:ba:5b:a7:ce:8f:60:a1:fc:5a:a7:87:19:
                    1f:12:f6:c8:b2:32:f4:a8:22:72:ec:97:cc:98:48:
                    24:b3:4d:c4:83:7b:9e:1d:15:62:63:37:f5:b6:0c:
                    4f:b5:97:33:87:1f:67:cd:0b:bb:71:7b:38:60:c5:
                    4f:2f:ad:40:44:0a:8e:af:0c:6c:5a:f4:00:6d:94:
                    a3:f3:ae:f2:eb:5e:14:68:0a:03:5b:c7:89:09:d0:
                    f9:bd
                Exponent: 65537 (0x10001)
        X509v3 extensions:
            X509v3 Subject Key Identifier: 
                4C:B9:F4:49:C1:82:B5:1E:3A:81:63:FA:0C:15:78:A5:F7:4A:AF:FF
            X509v3 Authority Key Identifier: 
                keyid:3F:6C:37:71:8F:74:1B:28:5A:0F:C2:29:C1:2B:05:7E:D1:24:D4:54

            X509v3 Basic Constraints: 
                CA:FALSE
            X509v3 Key Usage: 
                Digital Signature, Key Encipherment
            X509v3 Subject Alternative Name: 
                DNS:*.pixiv.net, DNS:pixiv.net, DNS:*.secure.pixiv.net, DNS:pixivision.net, DNS:*.pixivision.net, DNS:pixiv.me, DNS:*.pixiv.me, DNS:pximg.net, DNS:*.pximg.net, DNS:pixivsketch.net, DNS:*.pixivsketch.net, DNS:public-api.secure.pixiv.net, DNS:wikipedia.org, DNS:*.wikipedia.org, DNS:m.wikipedia.org, DNS:*.m.wikipedia.org, DNS:google.com, DNS:*.google.com, DNS:steamcommunity.com, DNS:*.steamcommunity.com, DNS:steampowered.com, DNS:*.steampowered.com
    Signature Algorithm: sha256WithRSAEncryption
         6d:0b:ab:0a:a6:08:b1:42:84:15:b9:eb:c8:bf:92:9f:cc:a2:
         e1:99:c3:bf:13:b5:6f:dc:9f:4f:d9:dd:91:bc:be:92:c1:f4:
         66:52:8b:e7:aa:aa:7a:9c:5c:1f:e9:ac:d0:5b:77:4a:35:db:
         96:8a:c6:af:29:41:cb:0a:1d:e9:24:a6:45:0d:87:e9:c8:5b:
         74:9b:8a:ac:60:3b:7f:43:8a:6c:a1:4e:4f:d3:c1:c0:ff:a5:
         80:0e:c9:47:df:6b:2a:f1:21:a1:6b:46:25:0f:86:98:92:55:
         1d:d4:b0:ed:61:51:ef:e5:50:db:0e:e2:5b:f5:6c:e7:dc:9f:
         f6:2e:b2:0f:30:fc:d3:9c:25:8a:03:d6:8b:5b:98:35:99:e3:
         af:cc:a8:83:55:91:b0:8f:ff:8a:12:15:2a:77:b5:38:6a:6d:
         3e:6c:4c:61:4d:33:9a:fb:23:20:6a:4e:bd:a5:f7:f9:04:a3:
         20:89:b5:1f:98:cb:98:19:07:22:90:c2:8b:30:1c:eb:29:d5:
         8f:0e:d6:de:9d:8c:a8:43:cc:a2:02:5d:31:ea:25:91:87:4a:
         1c:2e:ce:f1:e0:d7:0a:69:ac:82:04:c5:c9:34:0c:3d:e0:2c:
         5e:a9:9d:15:ac:4c:8f:b2:9a:7b:a4:7c:b5:d5:ff:58:f8:e1:
         46:fa:a3:71
-----BEGIN CERTIFICATE-----
MIIFFzCCA/+gAwIBAgIBDjANBgkqhkiG9w0BAQsFADB2MQswCQYDVQQGEwJDTjER
MA8GA1UECBMIU2hhbmdoYWkxETAPBgNVBAcTCFNoYW5naGFpMRQwEgYDVQQKEwtN
YXNoaXJvIExMQzErMCkGA1UEAxMiTWFzaGlybyBJbnRlcm5ldCBGYWtlIEF1dGhv
cml0eSBDQTAeFw0xOTA2MjIwNjQ3NTNaFw0yOTA2MTkwNjQ3NTNaMEwxCzAJBgNV
BAYTAkNOMREwDwYDVQQIEwhTaGFuZ2hhaTEUMBIGA1UEChMLTWFzaGlybyBMTEMx
FDASBgNVBAMUCyoucGl4aXYubmV0MIIBIjANBgkqhkiG9w0BAQEFAAOCAQ8AMIIB
CgKCAQEAzgAYzGRwrFmwRZ7D7p6bslZZQ6q3mGu7hobJu7btVLhW3uwYBmJZJzvS
FkqKhq1AK2lq3CESS8r9hagB3ewqIKJusMKneYj59DSV+4W/8McdVyn4pWLjtp5S
90IqDFpcbbQwUU7BQFfGWFcYR5xZnbc4u8wMaKpsaHa+b4SDEu9gLRFh2AHwCYWM
gPrw9iOVx5fBhlOXtdXcW6j4IkkKcC2SdxdB/Q66W6fOj2Ch/FqnhxkfEvbIsjL0
qCJy7JfMmEgks03Eg3ueHRViYzf1tgxPtZczhx9nzQu7cXs4YMVPL61ARAqOrwxs
WvQAbZSj867y614UaAoDW8eJCdD5vQIDAQABo4IB2DCCAdQwHQYDVR0OBBYEFEy5
9EnBgrUeOoFj+gwVeKX3Sq//MB8GA1UdIwQYMBaAFD9sN3GPdBsoWg/CKcErBX7R
JNRUMAkGA1UdEwQCMAAwCwYDVR0PBAQDAgWgMIIBeAYDVR0RBIIBbzCCAWuCCyou
cGl4aXYubmV0gglwaXhpdi5uZXSCEiouc2VjdXJlLnBpeGl2Lm5ldIIOcGl4aXZp
c2lvbi5uZXSCECoucGl4aXZpc2lvbi5uZXSCCHBpeGl2Lm1lggoqLnBpeGl2Lm1l
gglweGltZy5uZXSCCyoucHhpbWcubmV0gg9waXhpdnNrZXRjaC5uZXSCESoucGl4
aXZza2V0Y2gubmV0ghtwdWJsaWMtYXBpLnNlY3VyZS5waXhpdi5uZXSCDXdpa2lw
ZWRpYS5vcmeCDyoud2lraXBlZGlhLm9yZ4IPbS53aWtpcGVkaWEub3JnghEqLm0u
d2lraXBlZGlhLm9yZ4IKZ29vZ2xlLmNvbYIMKi5nb29nbGUuY29tghJzdGVhbWNv
bW11bml0eS5jb22CFCouc3RlYW1jb21tdW5pdHkuY29tghBzdGVhbXBvd2VyZWQu
Y29tghIqLnN0ZWFtcG93ZXJlZC5jb20wDQYJKoZIhvcNAQELBQADggEBAG0Lqwqm
CLFChBW568i/kp/MouGZw78TtW/cn0/Z3ZG8vpLB9GZSi+eqqnqcXB/prNBbd0o1
25aKxq8pQcsKHekkpkUNh+nIW3SbiqxgO39DimyhTk/TwcD/pYAOyUffayrxIaFr
RiUPhpiSVR3UsO1hUe/lUNsO4lv1bOfcn/Yusg8w/NOcJYoD1otbmDWZ46/MqINV
kbCP/4oSFSp3tThqbT5sTGFNM5r7IyBqTr2l9/kEoyCJtR+Yy5gZByKQwoswHOsp
1Y8O1t6djKhDzKICXTHqJZGHShwuzvHg1wpprIIExck0DD3gLF6pnRWsTI+ymnuk
fLXV/1j44Ub6o3E=
-----END CERTIFICATE-----
