Certificate:
    Data:
        Version: 3 (0x2)
        Serial Number: 1 (0x1)
    Signature Algorithm: sha256WithRSAEncryption
        Issuer: C=CN, ST=Shanghai, L=Shanghai, O=Mashiro LLC, CN=Mashiro Internet Fake Authority CA
        Validity
            Not Before: Jan 27 03:43:37 2019 GMT
            Not After : Jan 24 03:43:37 2029 GMT
        Subject: C=CN, ST=Shanghai, O=Mashiro LLC, CN=*.pixiv.net
        Subject Public Key Info:
            Public Key Algorithm: rsaEncryption
                Public-Key: (2048 bit)
                Modulus:
                    00:b6:69:b0:85:40:ad:74:2c:4a:68:5d:9c:9b:88:
                    15:77:95:1e:48:09:bf:49:0e:77:94:fc:66:bd:33:
                    05:28:f7:e8:dd:a9:70:59:d3:6a:a2:b3:66:6f:ac:
                    37:9f:e6:bd:4b:41:d4:18:1a:db:e6:c7:ca:74:a1:
                    d7:29:2b:11:5a:b8:59:70:6c:47:c8:77:ed:dc:5e:
                    94:cf:a6:95:8c:ab:42:5e:9f:fb:08:98:35:6c:96:
                    f3:a5:2e:ed:ae:93:e1:d7:48:03:27:43:49:89:19:
                    c0:51:3a:b2:10:65:4e:79:d9:fa:e6:c0:98:db:34:
                    6b:47:61:25:29:4e:23:40:db:0f:06:94:63:04:9c:
                    b3:af:bd:36:0f:41:38:2c:5e:51:c5:46:17:5c:88:
                    2c:95:8e:75:da:5e:81:55:88:df:ad:dd:32:b0:ca:
                    96:28:45:6b:c2:13:c6:35:d3:4d:41:e9:f4:f1:c4:
                    5d:3a:52:00:ef:b5:96:6b:2d:3f:30:a5:59:c7:51:
                    67:41:94:e3:39:f2:a8:ca:f4:ab:e7:3a:f9:f1:dc:
                    8f:bb:ae:95:d3:48:e5:48:82:46:94:83:90:44:5f:
                    4c:cd:61:c4:b7:27:a8:56:3a:22:b6:c2:05:76:b2:
                    a7:da:58:58:29:74:16:02:79:bf:16:2d:73:01:a8:
                    13:e3
                Exponent: 65537 (0x10001)
        X509v3 extensions:
            X509v3 Subject Key Identifier: 
                04:79:27:0B:A8:B9:39:9C:2E:F0:A6:88:4A:73:38:D8:BD:2F:4C:BD
            X509v3 Authority Key Identifier: 
                keyid:3F:6C:37:71:8F:74:1B:28:5A:0F:C2:29:C1:2B:05:7E:D1:24:D4:54

            X509v3 Basic Constraints: 
                CA:TRUE
            X509v3 Key Usage: 
                Digital Signature, Key Encipherment
            X509v3 Subject Alternative Name: 
                DNS:*.pixiv.net, DNS:pixiv.net, DNS:public-api.secure.pixiv.net, DNS:*.secure.pixiv.net, DNS:www.pixivision.net, DNS:pixiv.me, DNS:pximg.net, DNS:*.pximg.net, DNS:wikipedia.org, DNS:*.wikipedia.org, DNS:google.com, DNS:*.google.com
    Signature Algorithm: sha256WithRSAEncryption
         40:1d:14:35:6f:7d:47:0f:08:85:dc:94:11:17:bd:bf:c5:48:
         be:b6:c7:40:71:2d:05:2a:cf:f4:a1:70:b3:55:63:24:34:60:
         55:70:ec:54:f4:b6:d4:33:50:ca:ad:92:68:6f:07:a7:4d:6d:
         66:2e:af:6f:d7:2e:cd:57:9f:eb:cc:ed:57:9f:e7:c3:d3:2c:
         3a:3b:b2:3e:f8:58:bf:45:58:14:0f:ab:a6:48:06:dd:52:22:
         ff:6f:48:78:f7:96:42:29:e6:80:e8:f7:2a:0f:9b:05:b0:23:
         91:fa:01:88:b0:9e:46:ae:fc:a5:63:5e:f0:6f:4c:ac:9a:68:
         39:7f:84:b2:47:43:67:03:ae:d4:33:6f:a3:ea:6c:d2:6c:35:
         72:14:42:25:ac:c2:99:e3:32:6d:b6:dc:33:42:f0:9f:da:13:
         6b:21:24:54:cd:f7:b5:6f:71:46:95:a4:19:e3:c4:d9:d4:ec:
         62:3f:11:df:d8:19:9f:a8:57:39:39:89:ad:87:5e:79:4a:3d:
         d1:77:d3:bf:dd:ae:53:56:fd:42:a3:a3:53:47:42:4d:84:7f:
         57:39:16:07:1d:fd:93:fb:6c:62:d5:74:4a:8f:80:31:3f:27:
         34:4a:96:67:0f:fd:7c:2b:ac:6c:59:85:86:81:c7:f9:6a:e4:
         d4:f8:c3:82
-----BEGIN CERTIFICATE-----
MIIEZTCCA02gAwIBAgIBATANBgkqhkiG9w0BAQsFADB2MQswCQYDVQQGEwJDTjER
MA8GA1UECBMIU2hhbmdoYWkxETAPBgNVBAcTCFNoYW5naGFpMRQwEgYDVQQKEwtN
YXNoaXJvIExMQzErMCkGA1UEAxMiTWFzaGlybyBJbnRlcm5ldCBGYWtlIEF1dGhv
cml0eSBDQTAeFw0xOTAxMjcwMzQzMzdaFw0yOTAxMjQwMzQzMzdaMEwxCzAJBgNV
BAYTAkNOMREwDwYDVQQIEwhTaGFuZ2hhaTEUMBIGA1UEChMLTWFzaGlybyBMTEMx
FDASBgNVBAMUCyoucGl4aXYubmV0MIIBIjANBgkqhkiG9w0BAQEFAAOCAQ8AMIIB
CgKCAQEAtmmwhUCtdCxKaF2cm4gVd5UeSAm/SQ53lPxmvTMFKPfo3alwWdNqorNm
b6w3n+a9S0HUGBrb5sfKdKHXKSsRWrhZcGxHyHft3F6Uz6aVjKtCXp/7CJg1bJbz
pS7trpPh10gDJ0NJiRnAUTqyEGVOedn65sCY2zRrR2ElKU4jQNsPBpRjBJyzr702
D0E4LF5RxUYXXIgslY512l6BVYjfrd0ysMqWKEVrwhPGNdNNQen08cRdOlIA77WW
ay0/MKVZx1FnQZTjOfKoyvSr5zr58dyPu66V00jlSIJGlIOQRF9MzWHEtyeoVjoi
tsIFdrKn2lhYKXQWAnm/Fi1zAagT4wIDAQABo4IBJjCCASIwHQYDVR0OBBYEFAR5
JwuouTmcLvCmiEpzONi9L0y9MB8GA1UdIwQYMBaAFD9sN3GPdBsoWg/CKcErBX7R
JNRUMAwGA1UdEwQFMAMBAf8wCwYDVR0PBAQDAgWgMIHEBgNVHREEgbwwgbmCCyou
cGl4aXYubmV0gglwaXhpdi5uZXSCG3B1YmxpYy1hcGkuc2VjdXJlLnBpeGl2Lm5l
dIISKi5zZWN1cmUucGl4aXYubmV0ghJ3d3cucGl4aXZpc2lvbi5uZXSCCHBpeGl2
Lm1lgglweGltZy5uZXSCCyoucHhpbWcubmV0gg13aWtpcGVkaWEub3Jngg8qLndp
a2lwZWRpYS5vcmeCCmdvb2dsZS5jb22CDCouZ29vZ2xlLmNvbTANBgkqhkiG9w0B
AQsFAAOCAQEAQB0UNW99Rw8IhdyUERe9v8VIvrbHQHEtBSrP9KFws1VjJDRgVXDs
VPS21DNQyq2SaG8Hp01tZi6vb9cuzVef68ztV5/nw9MsOjuyPvhYv0VYFA+rpkgG
3VIi/29IePeWQinmgOj3Kg+bBbAjkfoBiLCeRq78pWNe8G9MrJpoOX+EskdDZwOu
1DNvo+ps0mw1chRCJazCmeMybbbcM0Lwn9oTayEkVM33tW9xRpWkGePE2dTsYj8R
39gZn6hXOTmJrYdeeUo90XfTv92uU1b9QqOjU0dCTYR/VzkWBx39k/tsYtV0So+A
MT8nNEqWZw/9fCusbFmFhoHH+Wrk1PjDgg==
-----END CERTIFICATE-----
