Certificate:
    Data:
        Version: 3 (0x2)
        Serial Number: 17 (0x11)
        Signature Algorithm: sha256WithRSAEncryption
        Issuer: C=CN, ST=Shanghai, L=Shanghai, O=Mashiro LLC, CN=Mashiro Internet Fake Authority CA
        Validity
            Not Before: Oct 16 17:18:43 2020 GMT
            Not After : Oct 14 17:18:43 2030 GMT
        Subject: C=CN, ST=Shanghai, O=Mashiro LLC, CN=SNI\xE4\xBB\xA3\xE7\x90\x86\xE9\x80\x9A\xE7\x94\xA8\xE8\xAF\x81\xE4\xB9\xA6\xEF\xBC\x88https://2heng.xin/2017/09/19/pixiv/\xEF\xBC\x89
        Subject Public Key Info:
            Public Key Algorithm: rsaEncryption
                RSA Public-Key: (2048 bit)
                Modulus:
                    00:ce:00:18:cc:64:70:ac:59:b0:45:9e:c3:ee:9e:
                    9b:b2:56:59:43:aa:b7:98:6b:bb:86:86:c9:bb:b6:
                    ed:54:b8:56:de:ec:18:06:62:59:27:3b:d2:16:4a:
                    8a:86:ad:40:2b:69:6a:dc:21:12:4b:ca:fd:85:a8:
                    01:dd:ec:2a:20:a2:6e:b0:c2:a7:79:88:f9:f4:34:
                    95:fb:85:bf:f0:c7:1d:57:29:f8:a5:62:e3:b6:9e:
                    52:f7:42:2a:0c:5a:5c:6d:b4:30:51:4e:c1:40:57:
                    c6:58:57:18:47:9c:59:9d:b7:38:bb:cc:0c:68:aa:
                    6c:68:76:be:6f:84:83:12:ef:60:2d:11:61:d8:01:
                    f0:09:85:8c:80:fa:f0:f6:23:95:c7:97:c1:86:53:
                    97:b5:d5:dc:5b:a8:f8:22:49:0a:70:2d:92:77:17:
                    41:fd:0e:ba:5b:a7:ce:8f:60:a1:fc:5a:a7:87:19:
                    1f:12:f6:c8:b2:32:f4:a8:22:72:ec:97:cc:98:48:
                    24:b3:4d:c4:83:7b:9e:1d:15:62:63:37:f5:b6:0c:
                    4f:b5:97:33:87:1f:67:cd:0b:bb:71:7b:38:60:c5:
                    4f:2f:ad:40:44:0a:8e:af:0c:6c:5a:f4:00:6d:94:
                    a3:f3:ae:f2:eb:5e:14:68:0a:03:5b:c7:89:09:d0:
                    f9:bd
                Exponent: 65537 (0x10001)
        X509v3 extensions:
            X509v3 Subject Key Identifier:
                4C:B9:F4:49:C1:82:B5:1E:3A:81:63:FA:0C:15:78:A5:F7:4A:AF:FF
            X509v3 Authority Key Identifier:
                keyid:3F:6C:37:71:8F:74:1B:28:5A:0F:C2:29:C1:2B:05:7E:D1:24:D4:54

            X509v3 Basic Constraints:
                CA:FALSE
            X509v3 Key Usage:
                Digital Signature, Key Encipherment
            X509v3 Subject Alternative Name:
                DNS:*.pixiv.net, DNS:pixiv.net, DNS:*.secure.pixiv.net, DNS:pixivision.net, DNS:*.pixivision.net, DNS:pixiv.me, DNS:*.pixiv.me, DNS:pximg.net, DNS:*.pximg.net, DNS:pixivsketch.net, DNS:*.pixivsketch.net, DNS:public-api.secure.pixiv.net, DNS:wikipedia.org, DNS:*.wikipedia.org, DNS:m.wikipedia.org, DNS:*.m.wikipedia.org, DNS:google.com, DNS:*.google.com, DNS:steamcommunity.com, DNS:*.steamcommunity.com, DNS:steampowered.com, DNS:*.steampowered.com, DNS:archiveofourown.org, DNS:*.archiveofourown.org, DNS:wikimedia.org, DNS:*.wikimedia.org
    Signature Algorithm: sha256WithRSAEncryption
         74:95:98:78:3d:2d:7b:24:ae:59:9c:9e:84:d1:77:e0:47:92:
         81:28:27:98:e8:4d:b0:83:8d:f9:92:d2:59:2c:e4:be:9f:14:
         4f:3e:e1:1e:49:d3:4a:b7:37:22:4c:45:cd:29:8d:5b:aa:fe:
         cb:63:59:21:e0:0b:ea:69:0c:5b:92:09:e6:25:fe:1a:7e:2f:
         a6:3c:a4:71:a7:11:5c:5c:8c:aa:31:ff:42:c3:be:3d:d2:df:
         37:9e:47:35:f6:94:d1:af:0a:99:7a:39:07:25:86:7f:ae:bf:
         2d:a8:a6:5f:98:84:54:01:1d:09:32:b0:21:2b:23:d7:81:13:
         99:3d:5c:9b:ba:ce:7b:53:8d:2f:c2:39:a5:93:9b:fa:e2:31:
         ce:77:5a:e2:38:a3:f0:95:9a:a7:6b:67:92:93:a4:63:a5:24:
         63:88:21:e9:38:4d:a4:21:d2:a3:67:3c:70:9a:f3:df:f6:45:
         26:b4:18:23:05:04:9f:2f:7e:fd:db:85:b5:e4:c0:71:c6:b4:
         52:d4:dc:cd:91:1f:65:f1:d9:17:8c:d9:03:38:f5:7c:2a:e2:
         3c:e1:43:66:5a:01:cb:5e:56:6b:e4:78:83:17:01:f1:b0:25:
         b1:00:c5:37:81:83:94:9d:36:7a:3e:aa:81:23:2b:b1:90:b8:
         ea:fe:eb:e2
-----BEGIN CERTIFICATE-----
MIIFljCCBH6gAwIBAgIBETANBgkqhkiG9w0BAQsFADB2MQswCQYDVQQGEwJDTjER
MA8GA1UECBMIU2hhbmdoYWkxETAPBgNVBAcTCFNoYW5naGFpMRQwEgYDVQQKEwtN
YXNoaXJvIExMQzErMCkGA1UEAxMiTWFzaGlybyBJbnRlcm5ldCBGYWtlIEF1dGhv
cml0eSBDQTAeFw0yMDEwMTYxNzE4NDNaFw0zMDEwMTQxNzE4NDNaMH8xCzAJBgNV
BAYTAkNOMREwDwYDVQQIEwhTaGFuZ2hhaTEUMBIGA1UEChMLTWFzaGlybyBMTEMx
RzBFBgNVBAMUPlNOSeS7o+eQhumAmueUqOivgeS5pu+8iGh0dHBzOi8vMmhlbmcu
eGluLzIwMTcvMDkvMTkvcGl4aXYv77yJMIIBIjANBgkqhkiG9w0BAQEFAAOCAQ8A
MIIBCgKCAQEAzgAYzGRwrFmwRZ7D7p6bslZZQ6q3mGu7hobJu7btVLhW3uwYBmJZ
JzvSFkqKhq1AK2lq3CESS8r9hagB3ewqIKJusMKneYj59DSV+4W/8McdVyn4pWLj
tp5S90IqDFpcbbQwUU7BQFfGWFcYR5xZnbc4u8wMaKpsaHa+b4SDEu9gLRFh2AHw
CYWMgPrw9iOVx5fBhlOXtdXcW6j4IkkKcC2SdxdB/Q66W6fOj2Ch/FqnhxkfEvbI
sjL0qCJy7JfMmEgks03Eg3ueHRViYzf1tgxPtZczhx9nzQu7cXs4YMVPL61ARAqO
rwxsWvQAbZSj867y614UaAoDW8eJCdD5vQIDAQABo4ICJDCCAiAwHQYDVR0OBBYE
FEy59EnBgrUeOoFj+gwVeKX3Sq//MB8GA1UdIwQYMBaAFD9sN3GPdBsoWg/CKcEr
BX7RJNRUMAkGA1UdEwQCMAAwCwYDVR0PBAQDAgWgMIIBxAYDVR0RBIIBuzCCAbeC
CyoucGl4aXYubmV0gglwaXhpdi5uZXSCEiouc2VjdXJlLnBpeGl2Lm5ldIIOcGl4
aXZpc2lvbi5uZXSCECoucGl4aXZpc2lvbi5uZXSCCHBpeGl2Lm1lggoqLnBpeGl2
Lm1lgglweGltZy5uZXSCCyoucHhpbWcubmV0gg9waXhpdnNrZXRjaC5uZXSCESou
cGl4aXZza2V0Y2gubmV0ghtwdWJsaWMtYXBpLnNlY3VyZS5waXhpdi5uZXSCDXdp
a2lwZWRpYS5vcmeCDyoud2lraXBlZGlhLm9yZ4IPbS53aWtpcGVkaWEub3JnghEq
Lm0ud2lraXBlZGlhLm9yZ4IKZ29vZ2xlLmNvbYIMKi5nb29nbGUuY29tghJzdGVh
bWNvbW11bml0eS5jb22CFCouc3RlYW1jb21tdW5pdHkuY29tghBzdGVhbXBvd2Vy
ZWQuY29tghIqLnN0ZWFtcG93ZXJlZC5jb22CE2FyY2hpdmVvZm91cm93bi5vcmeC
FSouYXJjaGl2ZW9mb3Vyb3duLm9yZ4INd2lraW1lZGlhLm9yZ4IPKi53aWtpbWVk
aWEub3JnMA0GCSqGSIb3DQEBCwUAA4IBAQB0lZh4PS17JK5ZnJ6E0XfgR5KBKCeY
6E2wg435ktJZLOS+nxRPPuEeSdNKtzciTEXNKY1bqv7LY1kh4AvqaQxbkgnmJf4a
fi+mPKRxpxFcXIyqMf9Cw7490t83nkc19pTRrwqZejkHJYZ/rr8tqKZfmIRUAR0J
MrAhKyPXgROZPVybus57U40vwjmlk5v64jHOd1riOKPwlZqna2eSk6RjpSRjiCHp
OE2kIdKjZzxwmvPf9kUmtBgjBQSfL37924W15MBxxrRS1NzNkR9l8dkXjNkDOPV8
KuI84UNmWgHLXlZr5HiDFwHxsCWxAMU3gYOUnTZ6PqqBIyuxkLjq/uvi
-----END CERTIFICATE-----
